; Function Attrs: mustprogress uwtable
define void @_ZN22colvarbias_reweightaMDC2EPKc(ptr noundef nonnull align 8 dereferenceable(552) %0, ptr noundef %1, ptr noundef %2) unnamed_addr #4 align 2 {
  %4 = getelementptr inbounds i8, ptr %1, i64 8
  tail call void @_ZN20colvarbias_histogramC2EPKc(ptr noundef nonnull align 8 dereferenceable(440) %0, ptr noundef nonnull %4, ptr noundef %2)
  %5 = load ptr, ptr %1, align 8
  store ptr %5, ptr %0, align 8
  %6 = getelementptr inbounds i8, ptr %1, i64 56
  %7 = load ptr, ptr %6, align 8
  %8 = getelementptr i8, ptr %5, i64 -24
  %9 = load i64, ptr %8, align 8
  %10 = getelementptr inbounds i8, ptr %0, i64 %9
  store ptr %7, ptr %10, align 8
  %11 = getelementptr inbounds i8, ptr %1, i64 64
  %12 = load ptr, ptr %11, align 8
  %13 = load ptr, ptr %0, align 8
  %14 = getelementptr i8, ptr %13, i64 -32
  %15 = load i64, ptr %14, align 8
  %16 = getelementptr inbounds i8, ptr %0, i64 %15
  store ptr %12, ptr %16, align 8
  %17 = getelementptr inbounds i8, ptr %0, i64 440
  tail call void @llvm.memset.p0.i64(ptr noundef nonnull align 8 dereferenceable(24) %17, i8 0, i64 24, i1 false)
  %18 = getelementptr inbounds i8, ptr %0, i64 480
  %19 = getelementptr inbounds i8, ptr %0, i64 520
  tail call void @llvm.memset.p0.i64(ptr noundef nonnull align 8 dereferenceable(24) %18, i8 0, i64 24, i1 false)
  tail call void @llvm.memset.p0.i64(ptr noundef nonnull align 8 dereferenceable(32) %19, i8 0, i64 32, i1 false)
  ret void
}